target datalayout = "e-m:e-p270:32:32-p271:32:32-p272:64:64-i64:64-i128:128-f80:128-n8:16:32:64-S128"
target triple = "x86_64-pc-linux-gnu"

%struct.blake2_mac_data_st = type { %struct.blake2s_ctx_st, %struct.blake2s_param_st, [32 x i8] }
%struct.blake2s_ctx_st = type { [8 x i32], [2 x i32], [2 x i32], [64 x i8], i64, i64 }
%struct.blake2s_param_st = type { i8, i8, i8, i8, [4 x i8], [6 x i8], i8, i8, [8 x i8], [8 x i8] }

@.str = private unnamed_addr constant [60 x i8] c"../openssl/providers/implementations/macs/blake2_mac_impl.c\00", align 1
@__func__.blake2_mac_init = private unnamed_addr constant [16 x i8] c"blake2_mac_init\00", align 1
@__func__.blake2_setkey = private unnamed_addr constant [14 x i8] c"blake2_setkey\00", align 1

; Function Attrs: nounwind uwtable
define internal i32 @blake2_setkey(ptr noundef %0, ptr noundef %1, i64 noundef %2) #0 {
  %4 = alloca i32, align 4
  %5 = alloca ptr, align 8
  %6 = alloca ptr, align 8
  %7 = alloca i64, align 8
  store ptr %0, ptr %5, align 8, !tbaa !7
  store ptr %1, ptr %6, align 8, !tbaa !13
  store i64 %2, ptr %7, align 8, !tbaa !11
  %8 = load i64, ptr %7, align 8, !tbaa !11
  %9 = icmp ugt i64 %8, 32
  br i1 %9, label %13, label %10

10:                                               ; preds = %3
  %11 = load i64, ptr %7, align 8, !tbaa !11
  %12 = icmp eq i64 %11, 0
  br i1 %12, label %13, label %14

13:                                               ; preds = %10, %3
  call void @ERR_new()
  call void @ERR_set_debug(ptr noundef @.str, i32 noundef 94, ptr noundef @__func__.blake2_setkey)
  call void (i32, i32, ptr, ...) @ERR_set_error(i32 noundef 57, i32 noundef 105, ptr noundef null)
  store i32 0, ptr %4, align 4
  br label %35

14:                                               ; preds = %10
  %15 = load ptr, ptr %5, align 8, !tbaa !7
  %16 = getelementptr inbounds nuw %struct.blake2_mac_data_st, ptr %15, i32 0, i32 2
  %17 = getelementptr inbounds [32 x i8], ptr %16, i64 0, i64 0
  %18 = load ptr, ptr %6, align 8, !tbaa !13
  %19 = load i64, ptr %7, align 8, !tbaa !11
  call void @llvm.memcpy.p0.p0.i64(ptr align 8 %17, ptr align 1 %18, i64 %19, i1 false)
  %20 = load i64, ptr %7, align 8, !tbaa !11
  %21 = icmp ult i64 %20, 32
  br i1 %21, label %22, label %30

22:                                               ; preds = %14
  %23 = load ptr, ptr %5, align 8, !tbaa !7
  %24 = getelementptr inbounds nuw %struct.blake2_mac_data_st, ptr %23, i32 0, i32 2
  %25 = getelementptr inbounds [32 x i8], ptr %24, i64 0, i64 0
  %26 = load i64, ptr %7, align 8, !tbaa !11
  %27 = getelementptr inbounds nuw i8, ptr %25, i64 %26
  %28 = load i64, ptr %7, align 8, !tbaa !11
  %29 = sub i64 32, %28
  call void @llvm.memset.p0.i64(ptr align 1 %27, i8 0, i64 %29, i1 false)
  br label %30

30:                                               ; preds = %22, %14
  %31 = load ptr, ptr %5, align 8, !tbaa !7
  %32 = getelementptr inbounds nuw %struct.blake2_mac_data_st, ptr %31, i32 0, i32 1
  %33 = load i64, ptr %7, align 8, !tbaa !11
  %34 = trunc i64 %33 to i8
  call void @ossl_blake2s_param_set_key_length(ptr noundef %32, i8 noundef zeroext %34)
  store i32 1, ptr %4, align 4
  br label %35

35:                                               ; preds = %30, %13
  %36 = load i32, ptr %4, align 4
  ret i32 %36
}

; Function Attrs: nounwind uwtable
define internal i32 @blake2_mac_init(ptr noundef %0, ptr noundef %1, i64 noundef %2, ptr noundef %3) #0 {
  %5 = alloca i32, align 4
  %6 = alloca ptr, align 8
  %7 = alloca ptr, align 8
  %8 = alloca i64, align 8
  %9 = alloca ptr, align 8
  %10 = alloca ptr, align 8
  %11 = alloca i32, align 4
  store ptr %0, ptr %6, align 8, !tbaa !3
  store ptr %1, ptr %7, align 8, !tbaa !13
  store i64 %2, ptr %8, align 8, !tbaa !11
  store ptr %3, ptr %9, align 8, !tbaa !15
  call void @llvm.lifetime.start.p0(i64 8, ptr %10) #6
  %12 = load ptr, ptr %6, align 8, !tbaa !3
  store ptr %12, ptr %10, align 8, !tbaa !7
  %13 = call i32 @ossl_prov_is_running()
  %14 = icmp ne i32 %13, 0
  br i1 %14, label %15, label %20

15:                                               ; preds = %4
  %16 = load ptr, ptr %10, align 8, !tbaa !7
  %17 = load ptr, ptr %9, align 8, !tbaa !15
  %18 = call i32 @blake2_mac_set_ctx_params(ptr noundef %16, ptr noundef %17)
  %19 = icmp ne i32 %18, 0
  br i1 %19, label %21, label %20

20:                                               ; preds = %15, %4
  store i32 0, ptr %5, align 4
  store i32 1, ptr %11, align 4
  br label %50

21:                                               ; preds = %15
  %22 = load ptr, ptr %7, align 8, !tbaa !13
  %23 = icmp ne ptr %22, null
  br i1 %23, label %24, label %32

24:                                               ; preds = %21
  %25 = load ptr, ptr %10, align 8, !tbaa !7
  %26 = load ptr, ptr %7, align 8, !tbaa !13
  %27 = load i64, ptr %8, align 8, !tbaa !11
  %28 = call i32 @blake2_setkey(ptr noundef %25, ptr noundef %26, i64 noundef %27)
  %29 = icmp ne i32 %28, 0
  br i1 %29, label %31, label %30

30:                                               ; preds = %24
  store i32 0, ptr %5, align 4
  store i32 1, ptr %11, align 4
  br label %50

31:                                               ; preds = %24
  br label %41

32:                                               ; preds = %21
  %33 = load ptr, ptr %10, align 8, !tbaa !7
  %34 = getelementptr inbounds nuw %struct.blake2_mac_data_st, ptr %33, i32 0, i32 1
  %35 = getelementptr inbounds nuw %struct.blake2s_param_st, ptr %34, i32 0, i32 1
  %36 = load i8, ptr %35, align 1, !tbaa !17
  %37 = zext i8 %36 to i32
  %38 = icmp eq i32 %37, 0
  br i1 %38, label %39, label %40

39:                                               ; preds = %32
  call void @ERR_new()
  call void @ERR_set_debug(ptr noundef @.str, i32 noundef 117, ptr noundef @__func__.blake2_mac_init)
  call void (i32, i32, ptr, ...) @ERR_set_error(i32 noundef 57, i32 noundef 114, ptr noundef null)
  store i32 0, ptr %5, align 4
  store i32 1, ptr %11, align 4
  br label %50

40:                                               ; preds = %32
  br label %41

41:                                               ; preds = %40, %31
  %42 = load ptr, ptr %10, align 8, !tbaa !7
  %43 = getelementptr inbounds nuw %struct.blake2_mac_data_st, ptr %42, i32 0, i32 0
  %44 = load ptr, ptr %10, align 8, !tbaa !7
  %45 = getelementptr inbounds nuw %struct.blake2_mac_data_st, ptr %44, i32 0, i32 1
  %46 = load ptr, ptr %10, align 8, !tbaa !7
  %47 = getelementptr inbounds nuw %struct.blake2_mac_data_st, ptr %46, i32 0, i32 2
  %48 = getelementptr inbounds [32 x i8], ptr %47, i64 0, i64 0
  %49 = call i32 @ossl_blake2s_init_key(ptr noundef %43, ptr noundef %45, ptr noundef %48)
  store i32 %49, ptr %5, align 4
  store i32 1, ptr %11, align 4
  br label %50

50:                                               ; preds = %41, %39, %30, %20
  call void @llvm.lifetime.end.p0(i64 8, ptr %10) #6
  %51 = load i32, ptr %5, align 4
  ret i32 %51
}