; Function Attrs: nounwind uwtable
define internal i32 @blake2_mac_init(ptr noundef %0, ptr noundef readonly captures(address_is_null) %1, i64 noundef %2, ptr noundef %3) #0 {
  %5 = tail call i32 @ossl_prov_is_running() #6
  %.not = icmp eq i32 %5, 0
  br i1 %.not, label %28, label %6

6:                                                ; preds = %4
  %7 = tail call i32 @blake2_mac_set_ctx_params(ptr noundef %0, ptr noundef %3)
  %.not12 = icmp eq i32 %7, 0
  br i1 %.not12, label %28, label %8

8:                                                ; preds = %6
  %.not13 = icmp eq ptr %1, null
  br i1 %.not13, label %19, label %9

9:                                                ; preds = %8
  %10 = add i64 %2, -33
  %or.cond.i = icmp ult i64 %10, -32
  br i1 %or.cond.i, label %blake2_setkey.exit.thread, label %11

blake2_setkey.exit.thread:                        ; preds = %9
  tail call void @ERR_new() #6
  tail call void @ERR_set_debug(ptr noundef nonnull @.str, i32 noundef 94, ptr noundef nonnull @__func__.blake2_setkey) #6
  tail call void (i32, i32, ptr, ...) @ERR_set_error(i32 noundef 57, i32 noundef 105, ptr noundef null) #6
  br label %28

11:                                               ; preds = %9
  %12 = getelementptr inbounds nuw i8, ptr %0, i64 160
  tail call void @llvm.memcpy.p0.p0.i64(ptr nonnull align 8 %12, ptr nonnull readonly align 1 %1, i64 %2, i1 false)
  %13 = icmp samesign ult i64 %2, 32
  br i1 %13, label %14, label %blake2_setkey.exit

14:                                               ; preds = %11
  %15 = getelementptr inbounds nuw i8, ptr %12, i64 %2
  %16 = sub nuw nsw i64 32, %2
  tail call void @llvm.memset.p0.i64(ptr nonnull align 1 %15, i8 0, i64 %16, i1 false)
  br label %blake2_setkey.exit

blake2_setkey.exit:                               ; preds = %11, %14
  %17 = getelementptr inbounds nuw i8, ptr %0, i64 128
  %18 = trunc nuw nsw i64 %2 to i8
  tail call void @ossl_blake2s_param_set_key_length(ptr noundef nonnull %17, i8 noundef zeroext %18) #6
  br label %24

19:                                               ; preds = %8
  %20 = getelementptr inbounds nuw i8, ptr %0, i64 129
  %21 = load i8, ptr %20, align 1, !tbaa !9
  %22 = icmp eq i8 %21, 0
  br i1 %22, label %23, label %24

23:                                               ; preds = %19
  tail call void @ERR_new() #6
  tail call void @ERR_set_debug(ptr noundef nonnull @.str, i32 noundef 117, ptr noundef nonnull @__func__.blake2_mac_init) #6
  tail call void (i32, i32, ptr, ...) @ERR_set_error(i32 noundef 57, i32 noundef 114, ptr noundef null) #6
  br label %28

24:                                               ; preds = %blake2_setkey.exit, %19
  %25 = getelementptr inbounds nuw i8, ptr %0, i64 128
  %26 = getelementptr inbounds nuw i8, ptr %0, i64 160
  %27 = tail call i32 @ossl_blake2s_init_key(ptr noundef nonnull %0, ptr noundef nonnull %25, ptr noundef nonnull %26) #6
  br label %28

28:                                               ; preds = %blake2_setkey.exit.thread, %4, %6, %24, %23
  %.0 = phi i32 [ %27, %24 ], [ 0, %23 ], [ 0, %6 ], [ 0, %4 ], [ 0, %blake2_setkey.exit.thread ]
  ret i32 %.0
}